target datalayout = "e-m:e-p270:32:32-p271:32:32-p272:64:64-i64:64-i128:128-f80:128-n8:16:32:64-S128"
target triple = "x86_64-pc-linux-gnu"

%struct._asn1_ctx_t = type { i32, i32, i8, ptr, ptr, ptr, ptr, ptr, %struct.anon, %struct.anon.2, %struct.anon.3, ptr }
%struct.anon = type { i32, i8, i8, i8, ptr, ptr, i32, i32, ptr, ptr, ptr, %union.anon }
%union.anon = type { %struct.anon.0 }
%struct.anon.0 = type { ptr }
%struct.anon.2 = type { ptr, ptr, ptr }
%struct.anon.3 = type { i32, i8, ptr, i32, i32, ptr, ptr, ptr, %union.anon.4 }
%union.anon.4 = type { %struct.anon.5 }
%struct.anon.5 = type { ptr }
%struct._packet_info = type { ptr, ptr, i32, i32, %struct.nstime_t, %struct.nstime_t, %struct.nstime_t, i8, ptr, ptr, ptr, ptr, %struct._address, %struct._address, %struct._address, %struct._address, %struct._address, %struct._address, i32, ptr, i8, [3 x i8], %struct.anon.7, i32, i32, i32, i32, ptr, i8, ptr, ptr, i16, i16, i32, i32, i16, i32, i32, ptr, ptr, ptr, i8, i8, i16, i16, i16, i32, i16, i16, ptr, ptr, ptr, ptr, ptr, i32, i32 }
%struct.nstime_t = type { i64, i32 }
%struct._address = type { i32, i32, ptr, ptr }
%struct.anon.7 = type { i8, [3 x i8] }
%struct._h225_packet_info = type { i32, i32, i32, i32, i32, %struct._e_guid_t, i8, i8, %struct.nstime_t, i8, i8, i8, i32, i16, [129 x i8], i8, [50 x i8] }
%struct._e_guid_t = type { i32, i16, i16, [8 x i8] }

@proto_h225 = internal global i32 0, align 4
@contains_faststart = internal global i8 0, align 1
@.str.1687 = private unnamed_addr constant [6 x i8] c"%s %s\00", align 1

; Function Attrs: null_pointer_is_valid sspstrong uwtable
define internal i32 @dissect_h225_FastStart_item(ptr noundef %0, i32 noundef %1, ptr noundef %2, ptr noundef %3, i32 noundef %4) #0 {
  %6 = alloca ptr, align 8
  %7 = alloca i32, align 4
  %8 = alloca ptr, align 8
  %9 = alloca ptr, align 8
  %10 = alloca i32, align 4
  %11 = alloca ptr, align 8
  %12 = alloca [50 x i8], align 16
  %13 = alloca ptr, align 8
  %14 = alloca [50 x i8], align 16
  store ptr %0, ptr %6, align 8
  store i32 %1, ptr %7, align 4
  store ptr %2, ptr %8, align 8
  store ptr %3, ptr %9, align 8
  store i32 %4, ptr %10, align 4
  call void @llvm.lifetime.start.p0(i64 8, ptr %11) #11
  store ptr null, ptr %11, align 8
  call void @llvm.lifetime.start.p0(i64 50, ptr %12) #11
  call void @llvm.lifetime.start.p0(i64 8, ptr %13) #11
  %15 = getelementptr [50 x i8], ptr %12, i64 0, i64 0
  store i8 0, ptr %15, align 16
  %16 = load ptr, ptr %6, align 8
  %17 = load i32, ptr %7, align 4
  %18 = load ptr, ptr %8, align 8
  %19 = load ptr, ptr %9, align 8
  %20 = load i32, ptr %10, align 4
  %21 = call i32 @dissect_per_octet_string(ptr noundef %16, i32 noundef %17, ptr noundef %18, ptr noundef %19, i32 noundef %20, i32 noundef -1, i32 noundef -1, i1 noundef zeroext false, ptr noundef %11)
  store i32 %21, ptr %7, align 4
  %22 = load ptr, ptr %11, align 8
  %23 = icmp ne ptr %22, null
  br i1 %23, label %24, label %35

24:                                               ; preds = %5
  %25 = load ptr, ptr %11, align 8
  %26 = call i32 @tvb_reported_length(ptr noundef %25)
  %27 = icmp ne i32 %26, 0
  br i1 %27, label %28, label %35

28:                                               ; preds = %24
  %29 = load ptr, ptr %11, align 8
  %30 = load ptr, ptr %8, align 8
  %31 = getelementptr inbounds nuw %struct._asn1_ctx_t, ptr %30, i32 0, i32 3
  %32 = load ptr, ptr %31, align 8
  %33 = load ptr, ptr %9, align 8
  %34 = getelementptr inbounds [50 x i8], ptr %12, i64 0, i64 0
  call void @dissect_h245_FastStart_OLC(ptr noundef %29, ptr noundef %32, ptr noundef %33, ptr noundef %34)
  br label %35

35:                                               ; preds = %28, %24, %5
  %36 = load ptr, ptr %8, align 8
  %37 = getelementptr inbounds nuw %struct._asn1_ctx_t, ptr %36, i32 0, i32 3
  %38 = load ptr, ptr %37, align 8
  %39 = getelementptr inbounds nuw %struct._packet_info, ptr %38, i32 0, i32 51
  %40 = load ptr, ptr %39, align 8
  %41 = load ptr, ptr %8, align 8
  %42 = getelementptr inbounds nuw %struct._asn1_ctx_t, ptr %41, i32 0, i32 3
  %43 = load ptr, ptr %42, align 8
  %44 = load i32, ptr @proto_h225, align 4
  %45 = call ptr @p_get_proto_data(ptr noundef %40, ptr noundef %43, i32 noundef %44, i32 noundef 0)
  store ptr %45, ptr %13, align 8
  %46 = load ptr, ptr %13, align 8
  %47 = icmp ne ptr %46, null
  br i1 %47, label %48, label %62

48:                                               ; preds = %35
  call void @llvm.lifetime.start.p0(i64 50, ptr %14) #11
  %49 = getelementptr inbounds [50 x i8], ptr %14, i64 0, i64 0
  %50 = load ptr, ptr %13, align 8
  %51 = getelementptr inbounds nuw %struct._h225_packet_info, ptr %50, i32 0, i32 16
  %52 = getelementptr inbounds [50 x i8], ptr %51, i64 0, i64 0
  %53 = getelementptr inbounds [50 x i8], ptr %12, i64 0, i64 0
  %54 = call i32 (ptr, i64, i32, i64, ptr, ...) @__snprintf_chk(ptr noundef %49, i64 noundef 50, i32 noundef 2, i64 noundef 50, ptr noundef @.str.1687, ptr noundef %52, ptr noundef %53)
  %55 = load ptr, ptr %13, align 8
  %56 = getelementptr inbounds nuw %struct._h225_packet_info, ptr %55, i32 0, i32 16
  %57 = getelementptr inbounds [50 x i8], ptr %56, i64 0, i64 0
  %58 = getelementptr inbounds [50 x i8], ptr %14, i64 0, i64 0
  %59 = call i64 @g_strlcpy(ptr noundef %57, ptr noundef %58, i64 noundef 50)
  %60 = load ptr, ptr %13, align 8
  %61 = getelementptr inbounds nuw %struct._h225_packet_info, ptr %60, i32 0, i32 9
  store i8 1, ptr %61, align 8
  call void @llvm.lifetime.end.p0(i64 50, ptr %14) #11
  br label %62

62:                                               ; preds = %48, %35
  store i8 1, ptr @contains_faststart, align 1
  %63 = load i32, ptr %7, align 4
  call void @llvm.lifetime.end.p0(i64 8, ptr %13) #11
  call void @llvm.lifetime.end.p0(i64 50, ptr %12) #11
  call void @llvm.lifetime.end.p0(i64 8, ptr %11) #11
  ret i32 %63
}