; Function Attrs: null_pointer_is_valid sspstrong uwtable
define internal i32 @dissect_h225_FastStart_item(ptr noundef %0, i32 noundef %1, ptr noundef %2, ptr noundef %3, i32 noundef %4) #0 {
  %6 = alloca ptr, align 8
  %7 = alloca [50 x i8], align 16
  %8 = alloca [50 x i8], align 16
  call void @llvm.lifetime.start.p0(i64 8, ptr nonnull %6) #11
  store ptr null, ptr %6, align 8
  call void @llvm.lifetime.start.p0(i64 50, ptr nonnull %7) #11
  store i8 0, ptr %7, align 16
  %9 = call i32 @dissect_per_octet_string(ptr noundef %0, i32 noundef %1, ptr noundef %2, ptr noundef %3, i32 noundef %4, i32 noundef -1, i32 noundef -1, i1 noundef zeroext false, ptr noundef nonnull %6)
  %10 = load ptr, ptr %6, align 8
  %.not = icmp eq ptr %10, null
  br i1 %.not, label %17, label %11

11:                                               ; preds = %5
  %12 = call i32 @tvb_reported_length(ptr noundef nonnull %10)
  %.not14 = icmp eq i32 %12, 0
  br i1 %.not14, label %17, label %13

13:                                               ; preds = %11
  %14 = load ptr, ptr %6, align 8
  %15 = getelementptr inbounds nuw i8, ptr %2, i64 16
  %16 = load ptr, ptr %15, align 8
  call void @dissect_h245_FastStart_OLC(ptr noundef %14, ptr noundef %16, ptr noundef %3, ptr noundef nonnull %7)
  br label %17

17:                                               ; preds = %13, %11, %5
  %18 = getelementptr inbounds nuw i8, ptr %2, i64 16
  %19 = load ptr, ptr %18, align 8
  %20 = getelementptr inbounds nuw i8, ptr %19, i64 408
  %21 = load ptr, ptr %20, align 8
  %22 = load i32, ptr @proto_h225, align 4
  %23 = call ptr @p_get_proto_data(ptr noundef %21, ptr noundef %19, i32 noundef %22, i32 noundef 0)
  %.not15 = icmp eq ptr %23, null
  br i1 %.not15, label %29, label %24

24:                                               ; preds = %17
  call void @llvm.lifetime.start.p0(i64 50, ptr nonnull %8) #11
  %25 = getelementptr inbounds nuw i8, ptr %23, i64 196
  %26 = call i32 (ptr, i64, i32, i64, ptr, ...) @__snprintf_chk(ptr noundef nonnull %8, i64 noundef 50, i32 noundef 2, i64 noundef 50, ptr noundef nonnull @.str.1687, ptr noundef nonnull %25, ptr noundef nonnull %7)
  %27 = call i64 @g_strlcpy(ptr noundef nonnull %25, ptr noundef nonnull %8, i64 noundef 50)
  %28 = getelementptr inbounds nuw i8, ptr %23, i64 56
  store i8 1, ptr %28, align 8
  call void @llvm.lifetime.end.p0(i64 50, ptr nonnull %8) #11
  br label %29

29:                                               ; preds = %24, %17
  store i1 true, ptr @contains_faststart, align 1
  call void @llvm.lifetime.end.p0(i64 50, ptr nonnull %7) #11
  call void @llvm.lifetime.end.p0(i64 8, ptr nonnull %6) #11
  ret i32 %9
}